; Function Attrs: nounwind uwtable
define range(i32 0, 2) i32 @ossl_asn1_type_set_octetstring_int(ptr noundef %0, i64 noundef %1, ptr noundef %2, i32 noundef %3) local_unnamed_addr #0 {
  %5 = alloca ptr, align 8
  %6 = alloca %struct.asn1_oct_int, align 8
  %7 = alloca %struct.asn1_string_st, align 8
  store ptr %0, ptr %5, align 8, !tbaa !9
  call void @llvm.lifetime.start.p0(i64 16, ptr nonnull %6) #5
  call void @llvm.lifetime.start.p0(i64 24, ptr nonnull %7) #5
  %8 = trunc i64 %1 to i32
  %9 = getelementptr inbounds nuw i8, ptr %6, i64 8
  store i32 %8, ptr %9, align 8, !tbaa !24
  store ptr %7, ptr %6, align 8, !tbaa !26
  %10 = getelementptr inbounds nuw i8, ptr %7, i64 8
  store ptr %2, ptr %10, align 8, !tbaa !16
  %11 = getelementptr inbounds nuw i8, ptr %7, i64 4
  store i32 4, ptr %11, align 4, !tbaa !20
  store i32 %3, ptr %7, align 8, !tbaa !21
  %12 = getelementptr inbounds nuw i8, ptr %7, i64 16
  store i64 0, ptr %12, align 8, !tbaa !22
  %13 = call ptr @ASN1_TYPE_pack_sequence(ptr noundef nonnull @asn1_oct_int_it.local_it, ptr noundef nonnull %6, ptr noundef nonnull %5) #5
  %.not = icmp ne ptr %13, null
  %. = zext i1 %.not to i32
  call void @llvm.lifetime.end.p0(i64 24, ptr nonnull %7) #5
  call void @llvm.lifetime.end.p0(i64 16, ptr nonnull %6) #5
  ret i32 %.
}